; Function Attrs: mustprogress nounwind uwtable
define internal fastcc void @"_ZSt9transformIN9__gnu_cxx17__normal_iteratorIPcNSt7__cxx1112basic_stringIcSt11char_traitsIcESaIcEEEEES9_ZN4node6crypto7TLSWrap8ClearOutEvE3$_0ET0_T_SF_SE_T1_"(ptr readonly %__first.coerce, ptr readnone %__last.coerce, ptr writeonly %__result.coerce) unnamed_addr #3 {
entry:
  %cmp.i.not6 = icmp eq ptr %__first.coerce, %__last.coerce
  br i1 %cmp.i.not6, label %for.end, label %for.body

for.body:                                         ; preds = %entry, %"_ZZN4node6crypto7TLSWrap8ClearOutEvENK3$_0clEc.exit"
  %__result.sroa.0.08 = phi ptr [ %incdec.ptr.i2, %"_ZZN4node6crypto7TLSWrap8ClearOutEvENK3$_0clEc.exit" ], [ %__result.coerce, %entry ]
  %__first.sroa.0.07 = phi ptr [ %incdec.ptr.i, %"_ZZN4node6crypto7TLSWrap8ClearOutEvENK3$_0clEc.exit" ], [ %__first.coerce, %entry ]
  %0 = load i8, ptr %__first.sroa.0.07, align 1
  %cmp.i1 = icmp eq i8 %0, 32
  br i1 %cmp.i1, label %"_ZZN4node6crypto7TLSWrap8ClearOutEvENK3$_0clEc.exit", label %cond.false.i

cond.false.i:                                     ; preds = %for.body
  %call.i.i = tail call noundef nonnull align 8 dereferenceable(8) ptr @_ZNSt6locale7classicEv() #23
  %call.i.i.i = tail call noundef nonnull align 8 dereferenceable(570) ptr @_ZSt9use_facetISt5ctypeIcEERKT_RKSt6locale(ptr noundef nonnull align 8 dereferenceable(8) %call.i.i) #23
  %vtable.i.i.i.i = load ptr, ptr %call.i.i.i, align 8
  %vfn.i.i.i.i = getelementptr inbounds i8, ptr %vtable.i.i.i.i, i64 16
  %1 = load ptr, ptr %vfn.i.i.i.i, align 8
  %call.i.i.i.i = tail call noundef signext i8 %1(ptr noundef nonnull align 8 dereferenceable(570) %call.i.i.i, i8 noundef signext %0) #23
  br label %"_ZZN4node6crypto7TLSWrap8ClearOutEvENK3$_0clEc.exit"

"_ZZN4node6crypto7TLSWrap8ClearOutEvENK3$_0clEc.exit": ; preds = %for.body, %cond.false.i
  %cond.i = phi i8 [ %call.i.i.i.i, %cond.false.i ], [ 95, %for.body ]
  store i8 %cond.i, ptr %__result.sroa.0.08, align 1
  %incdec.ptr.i = getelementptr inbounds i8, ptr %__first.sroa.0.07, i64 1
  %incdec.ptr.i2 = getelementptr inbounds i8, ptr %__result.sroa.0.08, i64 1
  %cmp.i.not = icmp eq ptr %incdec.ptr.i, %__last.coerce
  br i1 %cmp.i.not, label %for.end, label %for.body, !llvm.loop !20

for.end:                                          ; preds = %"_ZZN4node6crypto7TLSWrap8ClearOutEvENK3$_0clEc.exit", %entry
  ret void
}